target datalayout = "e-m:e-p270:32:32-p271:32:32-p272:64:64-i64:64-i128:128-f80:128-n8:16:32:64-S128"
target triple = "x86_64-pc-linux-gnu"

%"class.cv::Range" = type { i32, i32 }
%"class.cv::ParallelLoopBody" = type { ptr }
%"struct.cv::hal::cpu_baseline::(anonymous namespace)::RGB8toYUV422Invoker.63" = type <{ %"class.cv::ParallelLoopBody", ptr, i64, ptr, i64, i32, [4 x i8] }>

; Function Attrs: mustprogress nounwind uwtable
define internal noundef zeroext i8 @_ZN2cvL13saturate_castIhEET_i(i32 noundef %0) #2 {
  %2 = alloca i32, align 4
  store i32 %0, ptr %2, align 4
  %3 = load i32, ptr %2, align 4
  %4 = icmp ule i32 %3, 255
  br i1 %4, label %5, label %7

5:                                                ; preds = %1
  %6 = load i32, ptr %2, align 4
  br label %11

7:                                                ; preds = %1
  %8 = load i32, ptr %2, align 4
  %9 = icmp sgt i32 %8, 0
  %10 = select i1 %9, i32 255, i32 0
  br label %11

11:                                               ; preds = %7, %5
  %12 = phi i32 [ %6, %5 ], [ %10, %7 ]
  %13 = trunc i32 %12 to i8
  ret i8 %13
}

; Function Attrs: mustprogress nounwind uwtable
define internal void @_ZN2cv3hal12cpu_baseline12_GLOBAL__N_16RGB2UVEhhhhhhRhS3_(i8 noundef zeroext %0, i8 noundef zeroext %1, i8 noundef zeroext %2, i8 noundef zeroext %3, i8 noundef zeroext %4, i8 noundef zeroext %5, ptr noundef nonnull align 1 dereferenceable(1) %6, ptr noundef nonnull align 1 dereferenceable(1) %7) #2 {
  %9 = alloca i8, align 1
  %10 = alloca i8, align 1
  %11 = alloca i8, align 1
  %12 = alloca i8, align 1
  %13 = alloca i8, align 1
  %14 = alloca i8, align 1
  %15 = alloca ptr, align 8
  %16 = alloca ptr, align 8
  %17 = alloca i32, align 4
  %18 = alloca i32, align 4
  %19 = alloca i32, align 4
  %20 = alloca i32, align 4
  %21 = alloca i32, align 4
  store i8 %0, ptr %9, align 1
  store i8 %1, ptr %10, align 1
  store i8 %2, ptr %11, align 1
  store i8 %3, ptr %12, align 1
  store i8 %4, ptr %13, align 1
  store i8 %5, ptr %14, align 1
  store ptr %6, ptr %15, align 8
  store ptr %7, ptr %16, align 8
  %22 = load i8, ptr %9, align 1
  %23 = zext i8 %22 to i32
  %24 = load i8, ptr %12, align 1
  %25 = zext i8 %24 to i32
  %26 = add nsw i32 %23, %25
  store i32 %26, ptr %17, align 4
  %27 = load i8, ptr %10, align 1
  %28 = zext i8 %27 to i32
  %29 = load i8, ptr %13, align 1
  %30 = zext i8 %29 to i32
  %31 = add nsw i32 %28, %30
  store i32 %31, ptr %18, align 4
  %32 = load i8, ptr %11, align 1
  %33 = zext i8 %32 to i32
  %34 = load i8, ptr %14, align 1
  %35 = zext i8 %34 to i32
  %36 = add nsw i32 %33, %35
  store i32 %36, ptr %19, align 4
  %37 = load i32, ptr %17, align 4
  %38 = mul nsw i32 %37, -1212
  %39 = load i32, ptr %18, align 4
  %40 = mul nsw i32 %39, -2384
  %41 = add nsw i32 %38, %40
  %42 = load i32, ptr %19, align 4
  %43 = mul nsw i32 %42, 3596
  %44 = add nsw i32 %41, %43
  %45 = add nsw i32 %44, 2097152
  store i32 %45, ptr %20, align 4
  %46 = load i32, ptr %20, align 4
  %47 = add nsw i32 8192, %46
  %48 = ashr i32 %47, 14
  %49 = call noundef zeroext i8 @_ZN2cvL13saturate_castIhEET_i(i32 noundef %48)
  %50 = load ptr, ptr %15, align 8
  store i8 %49, ptr %50, align 1
  %51 = load i32, ptr %17, align 4
  %52 = mul nsw i32 %51, 3596
  %53 = load i32, ptr %18, align 4
  %54 = mul nsw i32 %53, -3015
  %55 = add nsw i32 %52, %54
  %56 = load i32, ptr %19, align 4
  %57 = mul nsw i32 %56, -582
  %58 = add nsw i32 %55, %57
  %59 = add nsw i32 %58, 2097152
  store i32 %59, ptr %21, align 4
  %60 = load i32, ptr %21, align 4
  %61 = add nsw i32 8192, %60
  %62 = ashr i32 %61, 14
  %63 = call noundef zeroext i8 @_ZN2cvL13saturate_castIhEET_i(i32 noundef %62)
  %64 = load ptr, ptr %16, align 8
  store i8 %63, ptr %64, align 1
  ret void
}

; Function Attrs: mustprogress nounwind uwtable
define internal void @_ZN2cv3hal12cpu_baseline12_GLOBAL__N_15RGB2YEhhhRh(i8 noundef zeroext %0, i8 noundef zeroext %1, i8 noundef zeroext %2, ptr noundef nonnull align 1 dereferenceable(1) %3) #2 {
  %5 = alloca i8, align 1
  %6 = alloca i8, align 1
  %7 = alloca i8, align 1
  %8 = alloca ptr, align 8
  %9 = alloca i32, align 4
  store i8 %0, ptr %5, align 1
  store i8 %1, ptr %6, align 1
  store i8 %2, ptr %7, align 1
  store ptr %3, ptr %8, align 8
  %10 = load i8, ptr %5, align 1
  %11 = zext i8 %10 to i32
  %12 = mul nsw i32 %11, 4211
  %13 = load i8, ptr %6, align 1
  %14 = zext i8 %13 to i32
  %15 = mul nsw i32 %14, 8258
  %16 = add nsw i32 %12, %15
  %17 = load i8, ptr %7, align 1
  %18 = zext i8 %17 to i32
  %19 = mul nsw i32 %18, 1606
  %20 = add nsw i32 %16, %19
  %21 = add nsw i32 %20, 262144
  store i32 %21, ptr %9, align 4
  %22 = load i32, ptr %9, align 4
  %23 = add nsw i32 8192, %22
  %24 = ashr i32 %23, 14
  %25 = call noundef zeroext i8 @_ZN2cvL13saturate_castIhEET_i(i32 noundef %24)
  %26 = load ptr, ptr %8, align 8
  store i8 %25, ptr %26, align 1
  ret void
}

; Function Attrs: mustprogress nounwind uwtable
define internal void @_ZN2cv3hal12cpu_baseline12_GLOBAL__N_114cvtRGB82Yuv422ILi1ELi0ELi2EEEvhhhhhhPh(i8 noundef zeroext %0, i8 noundef zeroext %1, i8 noundef zeroext %2, i8 noundef zeroext %3, i8 noundef zeroext %4, i8 noundef zeroext %5, ptr noundef %6) #2 {
  %8 = alloca i8, align 1
  %9 = alloca i8, align 1
  %10 = alloca i8, align 1
  %11 = alloca i8, align 1
  %12 = alloca i8, align 1
  %13 = alloca i8, align 1
  %14 = alloca ptr, align 8
  %15 = alloca ptr, align 8
  %16 = alloca ptr, align 8
  %17 = alloca ptr, align 8
  %18 = alloca ptr, align 8
  store i8 %0, ptr %8, align 1
  store i8 %1, ptr %9, align 1
  store i8 %2, ptr %10, align 1
  store i8 %3, ptr %11, align 1
  store i8 %4, ptr %12, align 1
  store i8 %5, ptr %13, align 1
  store ptr %6, ptr %14, align 8
  %19 = load ptr, ptr %14, align 8
  %20 = getelementptr inbounds i8, ptr %19, i64 0
  store ptr %20, ptr %15, align 8
  %21 = load ptr, ptr %14, align 8
  %22 = getelementptr inbounds i8, ptr %21, i64 2
  store ptr %22, ptr %16, align 8
  %23 = load ptr, ptr %14, align 8
  %24 = getelementptr inbounds i8, ptr %23, i64 1
  store ptr %24, ptr %17, align 8
  %25 = load ptr, ptr %14, align 8
  %26 = getelementptr inbounds i8, ptr %25, i64 3
  store ptr %26, ptr %18, align 8
  %27 = load i8, ptr %8, align 1
  %28 = load i8, ptr %9, align 1
  %29 = load i8, ptr %10, align 1
  %30 = load ptr, ptr %17, align 8
  call void @_ZN2cv3hal12cpu_baseline12_GLOBAL__N_15RGB2YEhhhRh(i8 noundef zeroext %27, i8 noundef zeroext %28, i8 noundef zeroext %29, ptr noundef nonnull align 1 dereferenceable(1) %30)
  %31 = load i8, ptr %11, align 1
  %32 = load i8, ptr %12, align 1
  %33 = load i8, ptr %13, align 1
  %34 = load ptr, ptr %18, align 8
  call void @_ZN2cv3hal12cpu_baseline12_GLOBAL__N_15RGB2YEhhhRh(i8 noundef zeroext %31, i8 noundef zeroext %32, i8 noundef zeroext %33, ptr noundef nonnull align 1 dereferenceable(1) %34)
  %35 = load i8, ptr %8, align 1
  %36 = load i8, ptr %9, align 1
  %37 = load i8, ptr %10, align 1
  %38 = load i8, ptr %11, align 1
  %39 = load i8, ptr %12, align 1
  %40 = load i8, ptr %13, align 1
  %41 = load ptr, ptr %15, align 8
  %42 = load ptr, ptr %16, align 8
  call void @_ZN2cv3hal12cpu_baseline12_GLOBAL__N_16RGB2UVEhhhhhhRhS3_(i8 noundef zeroext %35, i8 noundef zeroext %36, i8 noundef zeroext %37, i8 noundef zeroext %38, i8 noundef zeroext %39, i8 noundef zeroext %40, ptr noundef nonnull align 1 dereferenceable(1) %41, ptr noundef nonnull align 1 dereferenceable(1) %42)
  ret void
}

; Function Attrs: mustprogress nounwind uwtable
define internal void @_ZNK2cv3hal12cpu_baseline12_GLOBAL__N_119RGB8toYUV422InvokerILi2ELi0ELi1ELi4EEclERKNS_5RangeE(ptr noundef nonnull align 8 dereferenceable(44) %0, ptr noundef nonnull align 4 dereferenceable(8) %1) unnamed_addr #2 align 2 {
  %3 = alloca ptr, align 8
  %4 = alloca ptr, align 8
  %5 = alloca i32, align 4
  %6 = alloca i32, align 4
  %7 = alloca i32, align 4
  %8 = alloca i32, align 4
  %9 = alloca i32, align 4
  %10 = alloca ptr, align 8
  %11 = alloca ptr, align 8
  %12 = alloca i32, align 4
  %13 = alloca ptr, align 8
  %14 = alloca i32, align 4
  %15 = alloca i8, align 1
  %16 = alloca i8, align 1
  %17 = alloca i8, align 1
  %18 = alloca i8, align 1
  %19 = alloca i8, align 1
  %20 = alloca i8, align 1
  store ptr %0, ptr %3, align 8
  store ptr %1, ptr %4, align 8
  %21 = load ptr, ptr %3, align 8
  %22 = load ptr, ptr %4, align 8
  %23 = getelementptr inbounds %"class.cv::Range", ptr %22, i32 0, i32 0
  %24 = load i32, ptr %23, align 4
  store i32 %24, ptr %5, align 4
  %25 = load ptr, ptr %4, align 8
  %26 = getelementptr inbounds %"class.cv::Range", ptr %25, i32 0, i32 1
  %27 = load i32, ptr %26, align 4
  store i32 %27, ptr %6, align 4
  store i32 0, ptr %7, align 4
  store i32 2, ptr %8, align 4
  store i32 0, ptr %9, align 4
  %28 = getelementptr inbounds %"struct.cv::hal::cpu_baseline::(anonymous namespace)::RGB8toYUV422Invoker.63", ptr %21, i32 0, i32 3
  %29 = load ptr, ptr %28, align 8
  %30 = load i32, ptr %5, align 4
  %31 = sext i32 %30 to i64
  %32 = getelementptr inbounds %"struct.cv::hal::cpu_baseline::(anonymous namespace)::RGB8toYUV422Invoker.63", ptr %21, i32 0, i32 4
  %33 = load i64, ptr %32, align 8
  %34 = mul i64 %31, %33
  %35 = getelementptr inbounds i8, ptr %29, i64 %34
  store ptr %35, ptr %10, align 8
  %36 = load ptr, ptr %10, align 8
  %37 = getelementptr inbounds i8, ptr %36, i64 4
  store ptr %37, ptr %11, align 8
  %38 = load i32, ptr %5, align 4
  store i32 %38, ptr %12, align 4
  br label %39

39:                                               ; preds = %108, %2
  %40 = load i32, ptr %12, align 4
  %41 = load i32, ptr %6, align 4
  %42 = icmp slt i32 %40, %41
  br i1 %42, label %43, label %117

43:                                               ; preds = %39
  %44 = getelementptr inbounds %"struct.cv::hal::cpu_baseline::(anonymous namespace)::RGB8toYUV422Invoker.63", ptr %21, i32 0, i32 1
  %45 = load ptr, ptr %44, align 8
  %46 = getelementptr inbounds %"struct.cv::hal::cpu_baseline::(anonymous namespace)::RGB8toYUV422Invoker.63", ptr %21, i32 0, i32 2
  %47 = load i64, ptr %46, align 8
  %48 = load i32, ptr %12, align 4
  %49 = sext i32 %48 to i64
  %50 = mul i64 %47, %49
  %51 = getelementptr inbounds i8, ptr %45, i64 %50
  store ptr %51, ptr %13, align 8
  store i32 0, ptr %14, align 4
  br label %52

52:                                               ; preds = %102, %43
  %53 = load i32, ptr %14, align 4
  %54 = getelementptr inbounds %"struct.cv::hal::cpu_baseline::(anonymous namespace)::RGB8toYUV422Invoker.63", ptr %21, i32 0, i32 5
  %55 = load i32, ptr %54, align 8
  %56 = mul nsw i32 4, %55
  %57 = icmp slt i32 %53, %56
  br i1 %57, label %58, label %107

58:                                               ; preds = %52
  %59 = load ptr, ptr %10, align 8
  %60 = load i32, ptr %14, align 4
  %61 = add nsw i32 %60, 0
  %62 = sext i32 %61 to i64
  %63 = getelementptr inbounds i8, ptr %59, i64 %62
  %64 = load i8, ptr %63, align 1
  store i8 %64, ptr %15, align 1
  %65 = load ptr, ptr %10, align 8
  %66 = load i32, ptr %14, align 4
  %67 = add nsw i32 %66, 1
  %68 = sext i32 %67 to i64
  %69 = getelementptr inbounds i8, ptr %65, i64 %68
  %70 = load i8, ptr %69, align 1
  store i8 %70, ptr %16, align 1
  %71 = load ptr, ptr %10, align 8
  %72 = load i32, ptr %14, align 4
  %73 = add nsw i32 %72, 2
  %74 = sext i32 %73 to i64
  %75 = getelementptr inbounds i8, ptr %71, i64 %74
  %76 = load i8, ptr %75, align 1
  store i8 %76, ptr %17, align 1
  %77 = load ptr, ptr %11, align 8
  %78 = load i32, ptr %14, align 4
  %79 = add nsw i32 %78, 0
  %80 = sext i32 %79 to i64
  %81 = getelementptr inbounds i8, ptr %77, i64 %80
  %82 = load i8, ptr %81, align 1
  store i8 %82, ptr %18, align 1
  %83 = load ptr, ptr %11, align 8
  %84 = load i32, ptr %14, align 4
  %85 = add nsw i32 %84, 1
  %86 = sext i32 %85 to i64
  %87 = getelementptr inbounds i8, ptr %83, i64 %86
  %88 = load i8, ptr %87, align 1
  store i8 %88, ptr %19, align 1
  %89 = load ptr, ptr %11, align 8
  %90 = load i32, ptr %14, align 4
  %91 = add nsw i32 %90, 2
  %92 = sext i32 %91 to i64
  %93 = getelementptr inbounds i8, ptr %89, i64 %92
  %94 = load i8, ptr %93, align 1
  store i8 %94, ptr %20, align 1
  %95 = load i8, ptr %15, align 1
  %96 = load i8, ptr %16, align 1
  %97 = load i8, ptr %17, align 1
  %98 = load i8, ptr %18, align 1
  %99 = load i8, ptr %19, align 1
  %100 = load i8, ptr %20, align 1
  %101 = load ptr, ptr %13, align 8
  call void @_ZN2cv3hal12cpu_baseline12_GLOBAL__N_114cvtRGB82Yuv422ILi1ELi0ELi2EEEvhhhhhhPh(i8 noundef zeroext %95, i8 noundef zeroext %96, i8 noundef zeroext %97, i8 noundef zeroext %98, i8 noundef zeroext %99, i8 noundef zeroext %100, ptr noundef %101)
  br label %102

102:                                              ; preds = %58
  %103 = load i32, ptr %14, align 4
  %104 = add nsw i32 %103, 8
  store i32 %104, ptr %14, align 4
  %105 = load ptr, ptr %13, align 8
  %106 = getelementptr inbounds i8, ptr %105, i64 4
  store ptr %106, ptr %13, align 8
  br label %52, !llvm.loop !93

107:                                              ; preds = %52
  br label %108

108:                                              ; preds = %107
  %109 = load i32, ptr %12, align 4
  %110 = add nsw i32 %109, 1
  store i32 %110, ptr %12, align 4
  %111 = getelementptr inbounds %"struct.cv::hal::cpu_baseline::(anonymous namespace)::RGB8toYUV422Invoker.63", ptr %21, i32 0, i32 4
  %112 = load i64, ptr %111, align 8
  %113 = load ptr, ptr %10, align 8
  %114 = getelementptr inbounds i8, ptr %113, i64 %112
  store ptr %114, ptr %10, align 8
  %115 = load ptr, ptr %10, align 8
  %116 = getelementptr inbounds i8, ptr %115, i64 4
  store ptr %116, ptr %11, align 8
  br label %39, !llvm.loop !94

117:                                              ; preds = %39
  ret void
}